target datalayout = "e-m:e-p270:32:32-p271:32:32-p272:64:64-i64:64-i128:128-f80:128-n8:16:32:64-S128"
target triple = "x86_64-pc-linux-gnu"

%"class.icu_77::UMutex" = type { [40 x i8], %"struct.std::atomic", ptr }
%"struct.std::atomic" = type { %"struct.std::__atomic_base" }
%"struct.std::__atomic_base" = type { ptr }
%"class.icu_77::UObject" = type { ptr }
%"class.icu_77::UnicodeString" = type { %"class.icu_77::Replaceable", %"union.icu_77::UnicodeString::StackBufferOrFields" }
%"class.icu_77::Replaceable" = type { %"class.icu_77::UObject" }
%"union.icu_77::UnicodeString::StackBufferOrFields" = type { %struct.anon.0, [32 x i8] }
%struct.anon.0 = type { i16, i32, i32, ptr }
%"class.icu_77::ICUService" = type { %"class.icu_77::ICUNotifier", %"class.icu_77::UnicodeString", i32, ptr, ptr, ptr, ptr }
%"class.icu_77::ICUNotifier" = type { ptr, ptr }
%"class.icu_77::Mutex" = type { ptr }

@_ZN6icu_77L4lockE = internal global %"class.icu_77::UMutex" zeroinitializer, align 8

; Function Attrs: mustprogress nounwind uwtable
define linkonce_odr void @_ZN6icu_775MutexD2Ev(ptr noundef nonnull align 8 dereferenceable(8) %0) unnamed_addr #4 comdat align 2 personality ptr @__gxx_personality_v0 {
  %2 = alloca ptr, align 8
  store ptr %0, ptr %2, align 8, !tbaa !58
  %3 = load ptr, ptr %2, align 8
  %4 = getelementptr inbounds nuw %"class.icu_77::Mutex", ptr %3, i32 0, i32 0
  %5 = load ptr, ptr %4, align 8, !tbaa !62
  invoke void @umtx_unlock_77(ptr noundef %5)
          to label %6 unwind label %7

6:                                                ; preds = %1
  ret void

7:                                                ; preds = %1
  %8 = landingpad { ptr, i32 }
          catch ptr null
  %9 = extractvalue { ptr, i32 } %8, 0
  call void @__clang_call_terminate(ptr %9) #11
  unreachable
}

; Function Attrs: mustprogress uwtable
define linkonce_odr void @_ZN6icu_775MutexC2EPNS_6UMutexE(ptr noundef nonnull align 8 dereferenceable(8) %0, ptr noundef %1) unnamed_addr #0 comdat align 2 {
  %3 = alloca ptr, align 8
  %4 = alloca ptr, align 8
  store ptr %0, ptr %3, align 8, !tbaa !58
  store ptr %1, ptr %4, align 8, !tbaa !60
  %5 = load ptr, ptr %3, align 8
  %6 = getelementptr inbounds nuw %"class.icu_77::Mutex", ptr %5, i32 0, i32 0
  %7 = load ptr, ptr %4, align 8, !tbaa !60
  store ptr %7, ptr %6, align 8, !tbaa !62
  %8 = getelementptr inbounds nuw %"class.icu_77::Mutex", ptr %5, i32 0, i32 0
  %9 = load ptr, ptr %8, align 8, !tbaa !62
  call void @umtx_lock_77(ptr noundef %9)
  ret void
}

; Function Attrs: mustprogress uwtable
define noundef signext i8 @_ZN6icu_7710ICUService10unregisterEPKvR10UErrorCode(ptr noundef nonnull align 8 dereferenceable(120) %0, ptr noundef %1, ptr noundef nonnull align 4 dereferenceable(4) %2) unnamed_addr #0 align 2 personality ptr @__gxx_personality_v0 {
  %4 = alloca ptr, align 8
  %5 = alloca ptr, align 8
  %6 = alloca ptr, align 8
  %7 = alloca ptr, align 8
  %8 = alloca i8, align 1
  %9 = alloca %"class.icu_77::Mutex", align 8
  %10 = alloca ptr, align 8
  %11 = alloca i32, align 4
  store ptr %0, ptr %4, align 8, !tbaa !30
  store ptr %1, ptr %5, align 8, !tbaa !32
  store ptr %2, ptr %6, align 8, !tbaa !32
  %12 = load ptr, ptr %4, align 8
  call void @llvm.lifetime.start.p0(i64 8, ptr %7) #10
  %13 = load ptr, ptr %5, align 8, !tbaa !32
  store ptr %13, ptr %7, align 8, !tbaa !18
  call void @llvm.lifetime.start.p0(i64 1, ptr %8) #10
  store i8 0, ptr %8, align 1, !tbaa !22
  %14 = load ptr, ptr %7, align 8, !tbaa !18
  %15 = icmp ne ptr %14, null
  br i1 %15, label %16, label %46

16:                                               ; preds = %3
  %17 = getelementptr inbounds nuw %"class.icu_77::ICUService", ptr %12, i32 0, i32 3
  %18 = load ptr, ptr %17, align 8, !tbaa !54
  %19 = icmp ne ptr %18, null
  br i1 %19, label %20, label %46

20:                                               ; preds = %16
  call void @llvm.lifetime.start.p0(i64 8, ptr %9) #10
  call void @_ZN6icu_775MutexC2EPNS_6UMutexE(ptr noundef nonnull align 8 dereferenceable(8) %9, ptr noundef @_ZN6icu_77L4lockE)
  %21 = getelementptr inbounds nuw %"class.icu_77::ICUService", ptr %12, i32 0, i32 3
  %22 = load ptr, ptr %21, align 8, !tbaa !54
  %23 = load ptr, ptr %7, align 8, !tbaa !18
  %24 = invoke noundef signext i8 @_ZN6icu_777UVector13removeElementEPv(ptr noundef nonnull align 8 dereferenceable(40) %22, ptr noundef %23)
          to label %25 unwind label %32

25:                                               ; preds = %20
  %26 = icmp ne i8 %24, 0
  br i1 %26, label %27, label %36

27:                                               ; preds = %25
  %28 = load ptr, ptr %12, align 8, !tbaa !10
  %29 = getelementptr inbounds ptr, ptr %28, i64 18
  %30 = load ptr, ptr %29, align 8
  invoke void %30(ptr noundef nonnull align 8 dereferenceable(120) %12)
          to label %31 unwind label %32

31:                                               ; preds = %27
  store i8 1, ptr %8, align 1, !tbaa !22
  br label %45

32:                                               ; preds = %27, %20
  %33 = landingpad { ptr, i32 }
          cleanup
  %34 = extractvalue { ptr, i32 } %33, 0
  store ptr %34, ptr %10, align 8
  %35 = extractvalue { ptr, i32 } %33, 1
  store i32 %35, ptr %11, align 4
  call void @_ZN6icu_775MutexD2Ev(ptr noundef nonnull align 8 dereferenceable(8) %9) #10
  call void @llvm.lifetime.end.p0(i64 8, ptr %9) #10
  call void @llvm.lifetime.end.p0(i64 1, ptr %8) #10
  call void @llvm.lifetime.end.p0(i64 8, ptr %7) #10
  br label %55

36:                                               ; preds = %25
  %37 = load ptr, ptr %6, align 8, !tbaa !32
  store i32 1, ptr %37, align 4, !tbaa !33
  %38 = load ptr, ptr %7, align 8, !tbaa !18
  %39 = icmp eq ptr %38, null
  br i1 %39, label %44, label %40

40:                                               ; preds = %36
  %41 = load ptr, ptr %38, align 8, !tbaa !10
  %42 = getelementptr inbounds ptr, ptr %41, i64 1
  %43 = load ptr, ptr %42, align 8
  call void %43(ptr noundef nonnull align 8 dereferenceable(8) %38) #10
  br label %44

44:                                               ; preds = %40, %36
  br label %45

45:                                               ; preds = %44, %31
  call void @_ZN6icu_775MutexD2Ev(ptr noundef nonnull align 8 dereferenceable(8) %9) #10
  call void @llvm.lifetime.end.p0(i64 8, ptr %9) #10
  br label %46

46:                                               ; preds = %45, %16, %3
  %47 = load i8, ptr %8, align 1, !tbaa !22
  %48 = icmp ne i8 %47, 0
  br i1 %48, label %49, label %53

49:                                               ; preds = %46
  %50 = load ptr, ptr %12, align 8, !tbaa !10
  %51 = getelementptr inbounds ptr, ptr %50, i64 4
  %52 = load ptr, ptr %51, align 8
  call void %52(ptr noundef nonnull align 8 dereferenceable(16) %12)
  br label %53

53:                                               ; preds = %49, %46
  %54 = load i8, ptr %8, align 1, !tbaa !22
  call void @llvm.lifetime.end.p0(i64 1, ptr %8) #10
  call void @llvm.lifetime.end.p0(i64 8, ptr %7) #10
  ret i8 %54

55:                                               ; preds = %32
  %56 = load ptr, ptr %10, align 8
  %57 = load i32, ptr %11, align 4
  %58 = insertvalue { ptr, i32 } poison, ptr %56, 0
  %59 = insertvalue { ptr, i32 } %58, i32 %57, 1
  resume { ptr, i32 } %59
}