; Function Attrs: mustprogress uwtable
define noundef signext range(i8 0, 2) i8 @_ZN6icu_7710ICUService10unregisterEPKvR10UErrorCode(ptr noundef nonnull align 8 dereferenceable(120) %0, ptr noundef %1, ptr noundef nonnull writeonly align 4 captures(none) dereferenceable(4) %2) unnamed_addr #0 align 2 personality ptr @__gxx_personality_v0 {
  %.not = icmp eq ptr %1, null
  br i1 %.not, label %_ZN6icu_775MutexD2Ev.exit13.thread, label %4

4:                                                ; preds = %3
  %5 = getelementptr inbounds nuw i8, ptr %0, i64 88
  %6 = load ptr, ptr %5, align 8, !tbaa !34
  %.not10 = icmp eq ptr %6, null
  br i1 %.not10, label %_ZN6icu_775MutexD2Ev.exit13.thread, label %7

7:                                                ; preds = %4
  tail call void @umtx_lock_77(ptr noundef nonnull @_ZN6icu_77L4lockE)
  %8 = load ptr, ptr %5, align 8, !tbaa !34
  %9 = invoke noundef signext i8 @_ZN6icu_777UVector13removeElementEPv(ptr noundef nonnull align 8 dereferenceable(40) %8, ptr noundef nonnull %1)
          to label %10 unwind label %15

10:                                               ; preds = %7
  %.not11 = icmp eq i8 %9, 0
  br i1 %.not11, label %20, label %11

11:                                               ; preds = %10
  %12 = load ptr, ptr %0, align 8, !tbaa !3
  %13 = getelementptr inbounds nuw i8, ptr %12, i64 144
  %14 = load ptr, ptr %13, align 8
  invoke void %14(ptr noundef nonnull align 8 dereferenceable(120) %0)
          to label %24 unwind label %15

15:                                               ; preds = %11, %7
  %16 = landingpad { ptr, i32 }
          cleanup
  invoke void @umtx_unlock_77(ptr noundef nonnull @_ZN6icu_77L4lockE)
          to label %_ZN6icu_775MutexD2Ev.exit unwind label %17

17:                                               ; preds = %15
  %18 = landingpad { ptr, i32 }
          catch ptr null
  %19 = extractvalue { ptr, i32 } %18, 0
  tail call void @__clang_call_terminate(ptr %19) #18
  unreachable

_ZN6icu_775MutexD2Ev.exit:                        ; preds = %15
  resume { ptr, i32 } %16

20:                                               ; preds = %10
  store i32 1, ptr %2, align 4, !tbaa !19
  %21 = load ptr, ptr %1, align 8, !tbaa !3
  %22 = getelementptr inbounds nuw i8, ptr %21, i64 8
  %23 = load ptr, ptr %22, align 8
  tail call void %23(ptr noundef nonnull align 8 dereferenceable(8) %1) #17
  br label %24

24:                                               ; preds = %11, %20
  invoke void @umtx_unlock_77(ptr noundef nonnull @_ZN6icu_77L4lockE)
          to label %_ZN6icu_775MutexD2Ev.exit13 unwind label %25

25:                                               ; preds = %24
  %26 = landingpad { ptr, i32 }
          catch ptr null
  %27 = extractvalue { ptr, i32 } %26, 0
  tail call void @__clang_call_terminate(ptr %27) #18
  unreachable

_ZN6icu_775MutexD2Ev.exit13:                      ; preds = %24
  br i1 %.not11, label %_ZN6icu_775MutexD2Ev.exit13.thread, label %28

28:                                               ; preds = %_ZN6icu_775MutexD2Ev.exit13
  %29 = load ptr, ptr %0, align 8, !tbaa !3
  %30 = getelementptr inbounds nuw i8, ptr %29, i64 32
  %31 = load ptr, ptr %30, align 8
  tail call void %31(ptr noundef nonnull align 8 dereferenceable(16) %0)
  br label %_ZN6icu_775MutexD2Ev.exit13.thread

_ZN6icu_775MutexD2Ev.exit13.thread:               ; preds = %3, %4, %28, %_ZN6icu_775MutexD2Ev.exit13
  %.017 = phi i8 [ 1, %28 ], [ 0, %_ZN6icu_775MutexD2Ev.exit13 ], [ 0, %4 ], [ 0, %3 ]
  ret i8 %.017
}